target datalayout = "e-m:e-p270:32:32-p271:32:32-p272:64:64-i64:64-i128:128-f80:128-n8:16:32:64-S128"
target triple = "x86_64-pc-linux-gnu"

; Function Attrs: nounwind uwtable
define i32 @Dsc_CountAnds_rec(ptr noundef %0, ptr noundef %1, ptr noundef %2) #0 {
  %4 = alloca i32, align 4
  %5 = alloca ptr, align 8
  %6 = alloca ptr, align 8
  %7 = alloca ptr, align 8
  %8 = alloca ptr, align 8
  %9 = alloca i32, align 4
  %10 = alloca i32, align 4
  %11 = alloca ptr, align 8
  %12 = alloca i32, align 4
  %13 = alloca ptr, align 8
  store ptr %0, ptr %5, align 8, !tbaa !22
  store ptr %1, ptr %6, align 8, !tbaa !51
  store ptr %2, ptr %7, align 8, !tbaa !10
  %14 = load ptr, ptr %6, align 8, !tbaa !51
  %15 = load ptr, ptr %14, align 8, !tbaa !22
  %16 = load i8, ptr %15, align 1, !tbaa !24
  %17 = sext i8 %16 to i32
  %18 = icmp eq i32 %17, 33
  br i1 %18, label %19, label %23

19:                                               ; preds = %3
  %20 = load ptr, ptr %6, align 8, !tbaa !51
  %21 = load ptr, ptr %20, align 8, !tbaa !22
  %22 = getelementptr inbounds nuw i8, ptr %21, i32 1
  store ptr %22, ptr %20, align 8, !tbaa !22
  br label %23

23:                                               ; preds = %19, %3
  br label %24

24:                                               ; preds = %52, %23
  %25 = load ptr, ptr %6, align 8, !tbaa !51
  %26 = load ptr, ptr %25, align 8, !tbaa !22
  %27 = load i8, ptr %26, align 1, !tbaa !24
  %28 = sext i8 %27 to i32
  %29 = icmp sge i32 %28, 65
  br i1 %29, label %30, label %36

30:                                               ; preds = %24
  %31 = load ptr, ptr %6, align 8, !tbaa !51
  %32 = load ptr, ptr %31, align 8, !tbaa !22
  %33 = load i8, ptr %32, align 1, !tbaa !24
  %34 = sext i8 %33 to i32
  %35 = icmp sle i32 %34, 70
  br i1 %35, label %50, label %36

36:                                               ; preds = %30, %24
  %37 = load ptr, ptr %6, align 8, !tbaa !51
  %38 = load ptr, ptr %37, align 8, !tbaa !22
  %39 = load i8, ptr %38, align 1, !tbaa !24
  %40 = sext i8 %39 to i32
  %41 = icmp sge i32 %40, 48
  br i1 %41, label %42, label %48

42:                                               ; preds = %36
  %43 = load ptr, ptr %6, align 8, !tbaa !51
  %44 = load ptr, ptr %43, align 8, !tbaa !22
  %45 = load i8, ptr %44, align 1, !tbaa !24
  %46 = sext i8 %45 to i32
  %47 = icmp sle i32 %46, 57
  br label %48

48:                                               ; preds = %42, %36
  %49 = phi i1 [ false, %36 ], [ %47, %42 ]
  br label %50

50:                                               ; preds = %48, %30
  %51 = phi i1 [ true, %30 ], [ %49, %48 ]
  br i1 %51, label %52, label %56

52:                                               ; preds = %50
  %53 = load ptr, ptr %6, align 8, !tbaa !51
  %54 = load ptr, ptr %53, align 8, !tbaa !22
  %55 = getelementptr inbounds nuw i8, ptr %54, i32 1
  store ptr %55, ptr %53, align 8, !tbaa !22
  br label %24, !llvm.loop !53

56:                                               ; preds = %50
  %57 = load ptr, ptr %6, align 8, !tbaa !51
  %58 = load ptr, ptr %57, align 8, !tbaa !22
  %59 = load i8, ptr %58, align 1, !tbaa !24
  %60 = sext i8 %59 to i32
  %61 = icmp eq i32 %60, 60
  br i1 %61, label %62, label %85

62:                                               ; preds = %56
  call void @llvm.lifetime.start.p0(i64 8, ptr %8) #8
  %63 = load ptr, ptr %5, align 8, !tbaa !22
  %64 = load ptr, ptr %7, align 8, !tbaa !10
  %65 = load ptr, ptr %6, align 8, !tbaa !51
  %66 = load ptr, ptr %65, align 8, !tbaa !22
  %67 = load ptr, ptr %5, align 8, !tbaa !22
  %68 = ptrtoint ptr %66 to i64
  %69 = ptrtoint ptr %67 to i64
  %70 = sub i64 %68, %69
  %71 = getelementptr inbounds i32, ptr %64, i64 %70
  %72 = load i32, ptr %71, align 4, !tbaa !8
  %73 = sext i32 %72 to i64
  %74 = getelementptr inbounds i8, ptr %63, i64 %73
  store ptr %74, ptr %8, align 8, !tbaa !22
  %75 = load ptr, ptr %8, align 8, !tbaa !22
  %76 = getelementptr inbounds i8, ptr %75, i64 1
  %77 = load i8, ptr %76, align 1, !tbaa !24
  %78 = sext i8 %77 to i32
  %79 = icmp eq i32 %78, 123
  br i1 %79, label %80, label %84

80:                                               ; preds = %62
  %81 = load ptr, ptr %8, align 8, !tbaa !22
  %82 = getelementptr inbounds i8, ptr %81, i64 1
  %83 = load ptr, ptr %6, align 8, !tbaa !51
  store ptr %82, ptr %83, align 8, !tbaa !22
  br label %84

84:                                               ; preds = %80, %62
  call void @llvm.lifetime.end.p0(i64 8, ptr %8) #8
  br label %85

85:                                               ; preds = %84, %56
  %86 = load ptr, ptr %6, align 8, !tbaa !51
  %87 = load ptr, ptr %86, align 8, !tbaa !22
  %88 = load i8, ptr %87, align 1, !tbaa !24
  %89 = sext i8 %88 to i32
  %90 = icmp sge i32 %89, 97
  br i1 %90, label %91, label %98

91:                                               ; preds = %85
  %92 = load ptr, ptr %6, align 8, !tbaa !51
  %93 = load ptr, ptr %92, align 8, !tbaa !22
  %94 = load i8, ptr %93, align 1, !tbaa !24
  %95 = sext i8 %94 to i32
  %96 = icmp sle i32 %95, 122
  br i1 %96, label %97, label %98

97:                                               ; preds = %91
  store i32 0, ptr %4, align 4
  br label %201

98:                                               ; preds = %91, %85
  %99 = load ptr, ptr %6, align 8, !tbaa !51
  %100 = load ptr, ptr %99, align 8, !tbaa !22
  %101 = load i8, ptr %100, align 1, !tbaa !24
  %102 = sext i8 %101 to i32
  %103 = icmp eq i32 %102, 40
  br i1 %103, label %110, label %104

104:                                              ; preds = %98
  %105 = load ptr, ptr %6, align 8, !tbaa !51
  %106 = load ptr, ptr %105, align 8, !tbaa !22
  %107 = load i8, ptr %106, align 1, !tbaa !24
  %108 = sext i8 %107 to i32
  %109 = icmp eq i32 %108, 91
  br i1 %109, label %110, label %154

110:                                              ; preds = %104, %98
  call void @llvm.lifetime.start.p0(i64 4, ptr %9) #8
  store i32 0, ptr %9, align 4, !tbaa !8
  call void @llvm.lifetime.start.p0(i64 4, ptr %10) #8
  %111 = load ptr, ptr %6, align 8, !tbaa !51
  %112 = load ptr, ptr %111, align 8, !tbaa !22
  %113 = load i8, ptr %112, align 1, !tbaa !24
  %114 = sext i8 %113 to i32
  %115 = icmp eq i32 %114, 40
  %116 = select i1 %115, i32 1, i32 3
  store i32 %116, ptr %10, align 4, !tbaa !8
  call void @llvm.lifetime.start.p0(i64 8, ptr %11) #8
  %117 = load ptr, ptr %5, align 8, !tbaa !22
  %118 = load ptr, ptr %7, align 8, !tbaa !10
  %119 = load ptr, ptr %6, align 8, !tbaa !51
  %120 = load ptr, ptr %119, align 8, !tbaa !22
  %121 = load ptr, ptr %5, align 8, !tbaa !22
  %122 = ptrtoint ptr %120 to i64
  %123 = ptrtoint ptr %121 to i64
  %124 = sub i64 %122, %123
  %125 = getelementptr inbounds i32, ptr %118, i64 %124
  %126 = load i32, ptr %125, align 4, !tbaa !8
  %127 = sext i32 %126 to i64
  %128 = getelementptr inbounds i8, ptr %117, i64 %127
  store ptr %128, ptr %11, align 8, !tbaa !22
  %129 = load ptr, ptr %6, align 8, !tbaa !51
  %130 = load ptr, ptr %129, align 8, !tbaa !22
  %131 = getelementptr inbounds nuw i8, ptr %130, i32 1
  store ptr %131, ptr %129, align 8, !tbaa !22
  br label %132

132:                                              ; preds = %146, %110
  %133 = load ptr, ptr %6, align 8, !tbaa !51
  %134 = load ptr, ptr %133, align 8, !tbaa !22
  %135 = load ptr, ptr %11, align 8, !tbaa !22
  %136 = icmp ult ptr %134, %135
  br i1 %136, label %137, label %150

137:                                              ; preds = %132
  %138 = load i32, ptr %10, align 4, !tbaa !8
  %139 = load ptr, ptr %5, align 8, !tbaa !22
  %140 = load ptr, ptr %6, align 8, !tbaa !51
  %141 = load ptr, ptr %7, align 8, !tbaa !10
  %142 = call i32 @Dsc_CountAnds_rec(ptr noundef %139, ptr noundef %140, ptr noundef %141)
  %143 = add nsw i32 %138, %142
  %144 = load i32, ptr %9, align 4, !tbaa !8
  %145 = add nsw i32 %144, %143
  store i32 %145, ptr %9, align 4, !tbaa !8
  br label %146

146:                                              ; preds = %137
  %147 = load ptr, ptr %6, align 8, !tbaa !51
  %148 = load ptr, ptr %147, align 8, !tbaa !22
  %149 = getelementptr inbounds nuw i8, ptr %148, i32 1
  store ptr %149, ptr %147, align 8, !tbaa !22
  br label %132, !llvm.loop !54

150:                                              ; preds = %132
  %151 = load i32, ptr %9, align 4, !tbaa !8
  %152 = load i32, ptr %10, align 4, !tbaa !8
  %153 = sub nsw i32 %151, %152
  store i32 %153, ptr %4, align 4
  call void @llvm.lifetime.end.p0(i64 8, ptr %11) #8
  call void @llvm.lifetime.end.p0(i64 4, ptr %10) #8
  call void @llvm.lifetime.end.p0(i64 4, ptr %9) #8
  br label %201

154:                                              ; preds = %104
  %155 = load ptr, ptr %6, align 8, !tbaa !51
  %156 = load ptr, ptr %155, align 8, !tbaa !22
  %157 = load i8, ptr %156, align 1, !tbaa !24
  %158 = sext i8 %157 to i32
  %159 = icmp eq i32 %158, 60
  br i1 %159, label %166, label %160

160:                                              ; preds = %154
  %161 = load ptr, ptr %6, align 8, !tbaa !51
  %162 = load ptr, ptr %161, align 8, !tbaa !22
  %163 = load i8, ptr %162, align 1, !tbaa !24
  %164 = sext i8 %163 to i32
  %165 = icmp eq i32 %164, 123
  br i1 %165, label %166, label %200

166:                                              ; preds = %160, %154
  call void @llvm.lifetime.start.p0(i64 4, ptr %12) #8
  store i32 3, ptr %12, align 4, !tbaa !8
  call void @llvm.lifetime.start.p0(i64 8, ptr %13) #8
  %167 = load ptr, ptr %5, align 8, !tbaa !22
  %168 = load ptr, ptr %7, align 8, !tbaa !10
  %169 = load ptr, ptr %6, align 8, !tbaa !51
  %170 = load ptr, ptr %169, align 8, !tbaa !22
  %171 = load ptr, ptr %5, align 8, !tbaa !22
  %172 = ptrtoint ptr %170 to i64
  %173 = ptrtoint ptr %171 to i64
  %174 = sub i64 %172, %173
  %175 = getelementptr inbounds i32, ptr %168, i64 %174
  %176 = load i32, ptr %175, align 4, !tbaa !8
  %177 = sext i32 %176 to i64
  %178 = getelementptr inbounds i8, ptr %167, i64 %177
  store ptr %178, ptr %13, align 8, !tbaa !22
  %179 = load ptr, ptr %6, align 8, !tbaa !51
  %180 = load ptr, ptr %179, align 8, !tbaa !22
  %181 = getelementptr inbounds nuw i8, ptr %180, i32 1
  store ptr %181, ptr %179, align 8, !tbaa !22
  br label %182

182:                                              ; preds = %194, %166
  %183 = load ptr, ptr %6, align 8, !tbaa !51
  %184 = load ptr, ptr %183, align 8, !tbaa !22
  %185 = load ptr, ptr %13, align 8, !tbaa !22
  %186 = icmp ult ptr %184, %185
  br i1 %186, label %187, label %198

187:                                              ; preds = %182
  %188 = load ptr, ptr %5, align 8, !tbaa !22
  %189 = load ptr, ptr %6, align 8, !tbaa !51
  %190 = load ptr, ptr %7, align 8, !tbaa !10
  %191 = call i32 @Dsc_CountAnds_rec(ptr noundef %188, ptr noundef %189, ptr noundef %190)
  %192 = load i32, ptr %12, align 4, !tbaa !8
  %193 = add nsw i32 %192, %191
  store i32 %193, ptr %12, align 4, !tbaa !8
  br label %194

194:                                              ; preds = %187
  %195 = load ptr, ptr %6, align 8, !tbaa !51
  %196 = load ptr, ptr %195, align 8, !tbaa !22
  %197 = getelementptr inbounds nuw i8, ptr %196, i32 1
  store ptr %197, ptr %195, align 8, !tbaa !22
  br label %182, !llvm.loop !55

198:                                              ; preds = %182
  %199 = load i32, ptr %12, align 4, !tbaa !8
  store i32 %199, ptr %4, align 4
  call void @llvm.lifetime.end.p0(i64 8, ptr %13) #8
  call void @llvm.lifetime.end.p0(i64 4, ptr %12) #8
  br label %201

200:                                              ; preds = %160
  store i32 0, ptr %4, align 4
  br label %201

201:                                              ; preds = %200, %198, %150, %97
  %202 = load i32, ptr %4, align 4
  ret i32 %202
}